target datalayout = "e-m:e-p270:32:32-p271:32:32-p272:64:64-i64:64-i128:128-f80:128-n8:16:32:64-S128"
target triple = "x86_64-pc-linux-gnu"

%struct.pcre2_memctl = type { ptr, ptr, ptr }
%struct.pcre2_real_code_8 = type { %struct.pcre2_memctl, ptr, ptr, [32 x i8], i64, i32, i32, i32, i32, i32, i32, i32, i32, i32, i32, i16, i16, i16, i16, i16, i16, i16, i16 }

; Function Attrs: nounwind uwtable
define i32 @php_pcre2_substring_nametable_scan(ptr noundef %0, ptr noundef %1, ptr noundef %2, ptr noundef %3) #0 {
  %5 = alloca i32, align 4
  %6 = alloca ptr, align 8
  %7 = alloca ptr, align 8
  %8 = alloca ptr, align 8
  %9 = alloca ptr, align 8
  %10 = alloca i16, align 2
  %11 = alloca i16, align 2
  %12 = alloca i16, align 2
  %13 = alloca ptr, align 8
  %14 = alloca i16, align 2
  %15 = alloca ptr, align 8
  %16 = alloca i32, align 4
  %17 = alloca ptr, align 8
  %18 = alloca ptr, align 8
  %19 = alloca ptr, align 8
  store ptr %0, ptr %6, align 8
  store ptr %1, ptr %7, align 8
  store ptr %2, ptr %8, align 8
  store ptr %3, ptr %9, align 8
  store i16 0, ptr %10, align 2
  %20 = load ptr, ptr %6, align 8
  %21 = getelementptr inbounds %struct.pcre2_real_code_8, ptr %20, i32 0, i32 22
  %22 = load i16, ptr %21, align 2
  store i16 %22, ptr %11, align 2
  %23 = load ptr, ptr %6, align 8
  %24 = getelementptr inbounds %struct.pcre2_real_code_8, ptr %23, i32 0, i32 21
  %25 = load i16, ptr %24, align 4
  store i16 %25, ptr %12, align 2
  %26 = load ptr, ptr %6, align 8
  %27 = getelementptr inbounds i8, ptr %26, i64 136
  store ptr %27, ptr %13, align 8
  br label %28

28:                                               ; preds = %152, %4
  %29 = load i16, ptr %11, align 2
  %30 = zext i16 %29 to i32
  %31 = load i16, ptr %10, align 2
  %32 = zext i16 %31 to i32
  %33 = icmp sgt i32 %30, %32
  br i1 %33, label %34, label %153

34:                                               ; preds = %28
  %35 = load i16, ptr %11, align 2
  %36 = zext i16 %35 to i32
  %37 = load i16, ptr %10, align 2
  %38 = zext i16 %37 to i32
  %39 = add nsw i32 %36, %38
  %40 = sdiv i32 %39, 2
  %41 = trunc i32 %40 to i16
  store i16 %41, ptr %14, align 2
  %42 = load ptr, ptr %13, align 8
  %43 = load i16, ptr %12, align 2
  %44 = zext i16 %43 to i32
  %45 = load i16, ptr %14, align 2
  %46 = zext i16 %45 to i32
  %47 = mul nsw i32 %44, %46
  %48 = sext i32 %47 to i64
  %49 = getelementptr inbounds i8, ptr %42, i64 %48
  store ptr %49, ptr %15, align 8
  %50 = load ptr, ptr %7, align 8
  %51 = load ptr, ptr %15, align 8
  %52 = getelementptr inbounds i8, ptr %51, i64 2
  %53 = call i32 @_pcre2_strcmp_8(ptr noundef %50, ptr noundef %52)
  store i32 %53, ptr %16, align 4
  %54 = load i32, ptr %16, align 4
  %55 = icmp eq i32 %54, 0
  br i1 %55, label %56, label %142

56:                                               ; preds = %34
  %57 = load ptr, ptr %13, align 8
  %58 = load i16, ptr %12, align 2
  %59 = zext i16 %58 to i32
  %60 = load ptr, ptr %6, align 8
  %61 = getelementptr inbounds %struct.pcre2_real_code_8, ptr %60, i32 0, i32 22
  %62 = load i16, ptr %61, align 2
  %63 = zext i16 %62 to i32
  %64 = sub nsw i32 %63, 1
  %65 = mul nsw i32 %59, %64
  %66 = sext i32 %65 to i64
  %67 = getelementptr inbounds i8, ptr %57, i64 %66
  store ptr %67, ptr %19, align 8
  %68 = load ptr, ptr %15, align 8
  store ptr %68, ptr %18, align 8
  store ptr %68, ptr %17, align 8
  br label %69

69:                                               ; preds = %85, %56
  %70 = load ptr, ptr %17, align 8
  %71 = load ptr, ptr %13, align 8
  %72 = icmp ugt ptr %70, %71
  br i1 %72, label %73, label %92

73:                                               ; preds = %69
  %74 = load ptr, ptr %7, align 8
  %75 = load ptr, ptr %17, align 8
  %76 = load i16, ptr %12, align 2
  %77 = zext i16 %76 to i32
  %78 = sext i32 %77 to i64
  %79 = sub i64 0, %78
  %80 = getelementptr inbounds i8, ptr %75, i64 %79
  %81 = getelementptr inbounds i8, ptr %80, i64 2
  %82 = call i32 @_pcre2_strcmp_8(ptr noundef %74, ptr noundef %81)
  %83 = icmp ne i32 %82, 0
  br i1 %83, label %84, label %85

84:                                               ; preds = %73
  br label %92

85:                                               ; preds = %73
  %86 = load i16, ptr %12, align 2
  %87 = zext i16 %86 to i32
  %88 = load ptr, ptr %17, align 8
  %89 = sext i32 %87 to i64
  %90 = sub i64 0, %89
  %91 = getelementptr inbounds i8, ptr %88, i64 %90
  store ptr %91, ptr %17, align 8
  br label %69

92:                                               ; preds = %84, %69
  br label %93

93:                                               ; preds = %108, %92
  %94 = load ptr, ptr %18, align 8
  %95 = load ptr, ptr %19, align 8
  %96 = icmp ult ptr %94, %95
  br i1 %96, label %97, label %114

97:                                               ; preds = %93
  %98 = load ptr, ptr %7, align 8
  %99 = load ptr, ptr %18, align 8
  %100 = load i16, ptr %12, align 2
  %101 = zext i16 %100 to i32
  %102 = sext i32 %101 to i64
  %103 = getelementptr inbounds i8, ptr %99, i64 %102
  %104 = getelementptr inbounds i8, ptr %103, i64 2
  %105 = call i32 @_pcre2_strcmp_8(ptr noundef %98, ptr noundef %104)
  %106 = icmp ne i32 %105, 0
  br i1 %106, label %107, label %108

107:                                              ; preds = %97
  br label %114

108:                                              ; preds = %97
  %109 = load i16, ptr %12, align 2
  %110 = zext i16 %109 to i32
  %111 = load ptr, ptr %18, align 8
  %112 = sext i32 %110 to i64
  %113 = getelementptr inbounds i8, ptr %111, i64 %112
  store ptr %113, ptr %18, align 8
  br label %93

114:                                              ; preds = %107, %93
  %115 = load ptr, ptr %8, align 8
  %116 = icmp eq ptr %115, null
  br i1 %116, label %117, label %135

117:                                              ; preds = %114
  %118 = load ptr, ptr %17, align 8
  %119 = load ptr, ptr %18, align 8
  %120 = icmp eq ptr %118, %119
  br i1 %120, label %121, label %132

121:                                              ; preds = %117
  %122 = load ptr, ptr %15, align 8
  %123 = getelementptr inbounds i8, ptr %122, i64 0
  %124 = load i8, ptr %123, align 1
  %125 = zext i8 %124 to i32
  %126 = shl i32 %125, 8
  %127 = load ptr, ptr %15, align 8
  %128 = getelementptr inbounds i8, ptr %127, i64 1
  %129 = load i8, ptr %128, align 1
  %130 = zext i8 %129 to i32
  %131 = or i32 %126, %130
  br label %133

132:                                              ; preds = %117
  br label %133

133:                                              ; preds = %132, %121
  %134 = phi i32 [ %131, %121 ], [ -50, %132 ]
  store i32 %134, ptr %5, align 4
  br label %154

135:                                              ; preds = %114
  %136 = load ptr, ptr %17, align 8
  %137 = load ptr, ptr %8, align 8
  store ptr %136, ptr %137, align 8
  %138 = load ptr, ptr %18, align 8
  %139 = load ptr, ptr %9, align 8
  store ptr %138, ptr %139, align 8
  %140 = load i16, ptr %12, align 2
  %141 = zext i16 %140 to i32
  store i32 %141, ptr %5, align 4
  br label %154

142:                                              ; preds = %34
  %143 = load i32, ptr %16, align 4
  %144 = icmp sgt i32 %143, 0
  br i1 %144, label %145, label %150

145:                                              ; preds = %142
  %146 = load i16, ptr %14, align 2
  %147 = zext i16 %146 to i32
  %148 = add nsw i32 %147, 1
  %149 = trunc i32 %148 to i16
  store i16 %149, ptr %10, align 2
  br label %152

150:                                              ; preds = %142
  %151 = load i16, ptr %14, align 2
  store i16 %151, ptr %11, align 2
  br label %152

152:                                              ; preds = %150, %145
  br label %28

153:                                              ; preds = %28
  store i32 -49, ptr %5, align 4
  br label %154

154:                                              ; preds = %153, %135, %133
  %155 = load i32, ptr %5, align 4
  ret i32 %155
}