; Function Attrs: nounwind uwtable
define i32 @php_pcre2_substring_nametable_scan(ptr noundef %0, ptr noundef %1, ptr noundef writeonly %2, ptr nocapture noundef writeonly %3) local_unnamed_addr #0 {
  %5 = getelementptr inbounds i8, ptr %0, i64 134
  %6 = load i16, ptr %5, align 2
  %7 = getelementptr inbounds i8, ptr %0, i64 132
  %8 = load i16, ptr %7, align 4
  %.ptr53 = getelementptr inbounds i8, ptr %0, i64 136
  %.not58 = icmp eq i16 %6, 0
  br i1 %.not58, label %.loopexit, label %.lr.ph

.lr.ph:                                           ; preds = %4
  %9 = zext i16 %8 to i32
  br label %10

10:                                               ; preds = %.lr.ph, %51
  %.04657 = phi i16 [ 0, %.lr.ph ], [ %.1, %51 ]
  %.04756 = phi i16 [ %6, %.lr.ph ], [ %.148, %51 ]
  %11 = zext i16 %.04657 to i32
  %12 = zext i16 %.04756 to i32
  %13 = add nuw nsw i32 %11, %12
  %14 = lshr i32 %13, 1
  %15 = mul nuw nsw i32 %14, %9
  %narrow = add nuw i32 %15, 136
  %.add = zext i32 %narrow to i64
  %.ptr54 = getelementptr inbounds i8, ptr %0, i64 %.add
  %16 = getelementptr inbounds i8, ptr %.ptr54, i64 2
  %17 = tail call i32 @_pcre2_strcmp_8(ptr noundef %1, ptr noundef nonnull %16) #6
  %18 = icmp eq i32 %17, 0
  br i1 %18, label %19, label %51

19:                                               ; preds = %10
  %20 = load i16, ptr %5, align 2
  %21 = zext i16 %20 to i32
  %22 = add nsw i32 %21, -1
  %23 = mul nsw i32 %22, %9
  %24 = sext i32 %23 to i64
  %25 = getelementptr inbounds i8, ptr %.ptr53, i64 %24
  %26 = zext i16 %8 to i64
  %invariant.gep = getelementptr i8, ptr %0, i64 2
  br label %27

27:                                               ; preds = %29, %19
  %.045.idx = phi i64 [ %.add, %19 ], [ %.045.add, %29 ]
  %28 = icmp sgt i64 %.045.idx, 136
  br i1 %28, label %29, label %31

29:                                               ; preds = %27
  %.045.add = sub nsw i64 %.045.idx, %26
  %gep = getelementptr i8, ptr %invariant.gep, i64 %.045.add
  %30 = tail call i32 @_pcre2_strcmp_8(ptr noundef %1, ptr noundef nonnull %gep) #6
  %.not = icmp eq i32 %30, 0
  br i1 %.not, label %27, label %31

31:                                               ; preds = %29, %27
  %.045.ptr.le = getelementptr inbounds i8, ptr %0, i64 %.045.idx
  br label %32

32:                                               ; preds = %34, %31
  %.044 = phi ptr [ %.ptr54, %31 ], [ %35, %34 ]
  %33 = icmp ult ptr %.044, %25
  br i1 %33, label %34, label %38

34:                                               ; preds = %32
  %35 = getelementptr inbounds i8, ptr %.044, i64 %26
  %36 = getelementptr inbounds i8, ptr %35, i64 2
  %37 = tail call i32 @_pcre2_strcmp_8(ptr noundef %1, ptr noundef nonnull %36) #6
  %.not55 = icmp eq i32 %37, 0
  br i1 %.not55, label %32, label %38

38:                                               ; preds = %34, %32
  %39 = icmp eq ptr %2, null
  br i1 %39, label %40, label %50

40:                                               ; preds = %38
  %41 = icmp eq ptr %.045.ptr.le, %.044
  br i1 %41, label %42, label %.loopexit

42:                                               ; preds = %40
  %43 = load i8, ptr %.ptr54, align 1
  %44 = zext i8 %43 to i32
  %45 = shl nuw nsw i32 %44, 8
  %46 = getelementptr inbounds i8, ptr %.ptr54, i64 1
  %47 = load i8, ptr %46, align 1
  %48 = zext i8 %47 to i32
  %49 = or disjoint i32 %45, %48
  br label %.loopexit

50:                                               ; preds = %38
  store ptr %.045.ptr.le, ptr %2, align 8
  store ptr %.044, ptr %3, align 8
  br label %.loopexit

51:                                               ; preds = %10
  %52 = trunc i32 %14 to i16
  %53 = icmp sgt i32 %17, 0
  %54 = add i16 %52, 1
  %.148 = select i1 %53, i16 %.04756, i16 %52
  %.1 = select i1 %53, i16 %54, i16 %.04657
  %55 = icmp ugt i16 %.148, %.1
  br i1 %55, label %10, label %.loopexit

.loopexit:                                        ; preds = %51, %4, %42, %40, %50
  %.0 = phi i32 [ %9, %50 ], [ %49, %42 ], [ -50, %40 ], [ -49, %4 ], [ -49, %51 ]
  ret i32 %.0
}